target datalayout = "e-m:e-p270:32:32-p271:32:32-p272:64:64-i64:64-i128:128-f80:128-n8:16:32:64-S128"
target triple = "x86_64-pc-linux-gnu"

; Function Attrs: nounwind uwtable
define i64 @CRYPTO_cts128_encrypt_block(ptr noundef %0, ptr noundef %1, i64 noundef %2, ptr noundef %3, ptr noundef %4, ptr noundef %5) #0 {
  %7 = alloca i64, align 8
  %8 = alloca ptr, align 8
  %9 = alloca ptr, align 8
  %10 = alloca i64, align 8
  %11 = alloca ptr, align 8
  %12 = alloca ptr, align 8
  %13 = alloca ptr, align 8
  %14 = alloca i64, align 8
  %15 = alloca i64, align 8
  %16 = alloca i32, align 4
  store ptr %0, ptr %8, align 8, !tbaa !3
  store ptr %1, ptr %9, align 8, !tbaa !3
  store i64 %2, ptr %10, align 8, !tbaa !8
  store ptr %3, ptr %11, align 8, !tbaa !10
  store ptr %4, ptr %12, align 8, !tbaa !3
  store ptr %5, ptr %13, align 8, !tbaa !10
  call void @llvm.lifetime.start.p0(i64 8, ptr %14) #5
  call void @llvm.lifetime.start.p0(i64 8, ptr %15) #5
  %17 = load i64, ptr %10, align 8, !tbaa !8
  %18 = icmp ule i64 %17, 16
  br i1 %18, label %19, label %20

19:                                               ; preds = %6
  store i64 0, ptr %7, align 8
  store i32 1, ptr %16, align 4
  br label %76

20:                                               ; preds = %6
  %21 = load i64, ptr %10, align 8, !tbaa !8
  %22 = urem i64 %21, 16
  store i64 %22, ptr %14, align 8, !tbaa !8
  %23 = icmp eq i64 %22, 0
  br i1 %23, label %24, label %25

24:                                               ; preds = %20
  store i64 16, ptr %14, align 8, !tbaa !8
  br label %25

25:                                               ; preds = %24, %20
  %26 = load i64, ptr %14, align 8, !tbaa !8
  %27 = load i64, ptr %10, align 8, !tbaa !8
  %28 = sub i64 %27, %26
  store i64 %28, ptr %10, align 8, !tbaa !8
  %29 = load ptr, ptr %8, align 8, !tbaa !3
  %30 = load ptr, ptr %9, align 8, !tbaa !3
  %31 = load i64, ptr %10, align 8, !tbaa !8
  %32 = load ptr, ptr %11, align 8, !tbaa !10
  %33 = load ptr, ptr %12, align 8, !tbaa !3
  %34 = load ptr, ptr %13, align 8, !tbaa !10
  call void @CRYPTO_cbc128_encrypt(ptr noundef %29, ptr noundef %30, i64 noundef %31, ptr noundef %32, ptr noundef %33, ptr noundef %34)
  %35 = load i64, ptr %10, align 8, !tbaa !8
  %36 = load ptr, ptr %8, align 8, !tbaa !3
  %37 = getelementptr inbounds nuw i8, ptr %36, i64 %35
  store ptr %37, ptr %8, align 8, !tbaa !3
  %38 = load i64, ptr %10, align 8, !tbaa !8
  %39 = load ptr, ptr %9, align 8, !tbaa !3
  %40 = getelementptr inbounds nuw i8, ptr %39, i64 %38
  store ptr %40, ptr %9, align 8, !tbaa !3
  store i64 0, ptr %15, align 8, !tbaa !8
  br label %41

41:                                               ; preds = %58, %25
  %42 = load i64, ptr %15, align 8, !tbaa !8
  %43 = load i64, ptr %14, align 8, !tbaa !8
  %44 = icmp ult i64 %42, %43
  br i1 %44, label %45, label %61

45:                                               ; preds = %41
  %46 = load ptr, ptr %8, align 8, !tbaa !3
  %47 = load i64, ptr %15, align 8, !tbaa !8
  %48 = getelementptr inbounds nuw i8, ptr %46, i64 %47
  %49 = load i8, ptr %48, align 1, !tbaa !11
  %50 = zext i8 %49 to i32
  %51 = load ptr, ptr %12, align 8, !tbaa !3
  %52 = load i64, ptr %15, align 8, !tbaa !8
  %53 = getelementptr inbounds nuw i8, ptr %51, i64 %52
  %54 = load i8, ptr %53, align 1, !tbaa !11
  %55 = zext i8 %54 to i32
  %56 = xor i32 %55, %50
  %57 = trunc i32 %56 to i8
  store i8 %57, ptr %53, align 1, !tbaa !11
  br label %58

58:                                               ; preds = %45
  %59 = load i64, ptr %15, align 8, !tbaa !8
  %60 = add i64 %59, 1
  store i64 %60, ptr %15, align 8, !tbaa !8
  br label %41, !llvm.loop !12

61:                                               ; preds = %41
  %62 = load ptr, ptr %13, align 8, !tbaa !10
  %63 = load ptr, ptr %12, align 8, !tbaa !3
  %64 = load ptr, ptr %12, align 8, !tbaa !3
  %65 = load ptr, ptr %11, align 8, !tbaa !10
  call void %62(ptr noundef %63, ptr noundef %64, ptr noundef %65)
  %66 = load ptr, ptr %9, align 8, !tbaa !3
  %67 = load ptr, ptr %9, align 8, !tbaa !3
  %68 = getelementptr inbounds i8, ptr %67, i64 -16
  %69 = load i64, ptr %14, align 8, !tbaa !8
  call void @llvm.memcpy.p0.p0.i64(ptr align 1 %66, ptr align 1 %68, i64 %69, i1 false)
  %70 = load ptr, ptr %9, align 8, !tbaa !3
  %71 = getelementptr inbounds i8, ptr %70, i64 -16
  %72 = load ptr, ptr %12, align 8, !tbaa !3
  call void @llvm.memcpy.p0.p0.i64(ptr align 1 %71, ptr align 1 %72, i64 16, i1 false)
  %73 = load i64, ptr %10, align 8, !tbaa !8
  %74 = load i64, ptr %14, align 8, !tbaa !8
  %75 = add i64 %73, %74
  store i64 %75, ptr %7, align 8
  store i32 1, ptr %16, align 4
  br label %76

76:                                               ; preds = %61, %19
  call void @llvm.lifetime.end.p0(i64 8, ptr %15) #5
  call void @llvm.lifetime.end.p0(i64 8, ptr %14) #5
  %77 = load i64, ptr %7, align 8
  ret i64 %77
}