; Function Attrs: nounwind uwtable
define range(i64 17, 1) i64 @CRYPTO_cts128_encrypt_block(ptr noundef %0, ptr noundef %1, i64 noundef %2, ptr noundef %3, ptr noundef %4, ptr noundef %5) local_unnamed_addr #0 {
  %7 = icmp ult i64 %2, 17
  br i1 %7, label %23, label %8

8:                                                ; preds = %6
  %9 = and i64 %2, 15
  %10 = icmp eq i64 %9, 0
  %spec.store.select = select i1 %10, i64 16, i64 %9
  %11 = sub nuw i64 %2, %spec.store.select
  tail call void @CRYPTO_cbc128_encrypt(ptr noundef %0, ptr noundef %1, i64 noundef %11, ptr noundef %3, ptr noundef %4, ptr noundef %5) #5
  %12 = getelementptr inbounds nuw i8, ptr %0, i64 %11
  br label %13

13:                                               ; preds = %8, %13
  %.034 = phi i64 [ 0, %8 ], [ %19, %13 ]
  %14 = getelementptr inbounds nuw i8, ptr %12, i64 %.034
  %15 = load i8, ptr %14, align 1, !tbaa !3
  %16 = getelementptr inbounds nuw i8, ptr %4, i64 %.034
  %17 = load i8, ptr %16, align 1, !tbaa !3
  %18 = xor i8 %17, %15
  store i8 %18, ptr %16, align 1, !tbaa !3
  %19 = add nuw nsw i64 %.034, 1
  %exitcond.not = icmp eq i64 %19, %spec.store.select
  br i1 %exitcond.not, label %20, label %13, !llvm.loop !6

20:                                               ; preds = %13
  %21 = getelementptr inbounds nuw i8, ptr %1, i64 %11
  tail call void %5(ptr noundef nonnull %4, ptr noundef nonnull %4, ptr noundef %3) #5
  %22 = getelementptr inbounds i8, ptr %21, i64 -16
  tail call void @llvm.memcpy.p0.p0.i64(ptr noundef nonnull align 1 dereferenceable(1) %21, ptr noundef nonnull align 1 dereferenceable(1) %22, i64 %spec.store.select, i1 false)
  tail call void @llvm.memcpy.p0.p0.i64(ptr noundef nonnull align 1 dereferenceable(16) %22, ptr noundef nonnull align 1 dereferenceable(16) %4, i64 16, i1 false)
  br label %23

23:                                               ; preds = %6, %20
  %.032 = phi i64 [ %2, %20 ], [ 0, %6 ]
  ret i64 %.032
}